target datalayout = "e-m:e-p270:32:32-p271:32:32-p272:64:64-i64:64-i128:128-f80:128-n8:16:32:64-S128"
target triple = "x86_64-pc-linux-gnu"

@stderr = external global ptr, align 8
@.str.57 = private unnamed_addr constant [21 x i8] c"Usage: %s [OPTIONS]\0A\00", align 1
@.str.58 = private unnamed_addr constant [41 x i8] c"  -D         \09Run daemon in foreground.\0A\00", align 1
@.str.59 = private unnamed_addr constant [40 x i8] c"  -h         \09Print this help message.\0A\00", align 1
@.str.60 = private unnamed_addr constant [59 x i8] c"  -n value   \09Run the daemon at the specified nice value.\0A\00", align 1
@.str.61 = private unnamed_addr constant [73 x i8] c"  -s         \09Change working directory to LogFile dirname or /var/tmp/.\0A\00", align 1
@.str.62 = private unnamed_addr constant [63 x i8] c"  -v         \09Verbose mode. Multiple -v's increase verbosity.\0A\00", align 1
@.str.63 = private unnamed_addr constant [165 x i8] c"  -u         \09Only display the Slurm Database version and if conversion is needed. If no conversion is needed 0 is returned, if conversion is needed 1 is returned.\0A\00", align 1
@.str.64 = private unnamed_addr constant [51 x i8] c"  -V         \09Print version information and exit.\0A\00", align 1

; Function Attrs: nounwind uwtable
define internal void @_usage(ptr noundef %0) #0 {
  %2 = alloca ptr, align 8
  store ptr %0, ptr %2, align 8
  %3 = load ptr, ptr @stderr, align 8
  %4 = load ptr, ptr %2, align 8
  %5 = call i32 (ptr, ptr, ...) @fprintf(ptr noundef %3, ptr noundef @.str.57, ptr noundef %4) #10
  %6 = load ptr, ptr @stderr, align 8
  %7 = call i32 (ptr, ptr, ...) @fprintf(ptr noundef %6, ptr noundef @.str.58) #10
  %8 = load ptr, ptr @stderr, align 8
  %9 = call i32 (ptr, ptr, ...) @fprintf(ptr noundef %8, ptr noundef @.str.59) #10
  %10 = load ptr, ptr @stderr, align 8
  %11 = call i32 (ptr, ptr, ...) @fprintf(ptr noundef %10, ptr noundef @.str.60) #10
  %12 = load ptr, ptr @stderr, align 8
  %13 = call i32 (ptr, ptr, ...) @fprintf(ptr noundef %12, ptr noundef @.str.61) #10
  %14 = load ptr, ptr @stderr, align 8
  %15 = call i32 (ptr, ptr, ...) @fprintf(ptr noundef %14, ptr noundef @.str.62) #10
  %16 = load ptr, ptr @stderr, align 8
  %17 = call i32 (ptr, ptr, ...) @fprintf(ptr noundef %16, ptr noundef @.str.63) #10
  %18 = load ptr, ptr @stderr, align 8
  %19 = call i32 (ptr, ptr, ...) @fprintf(ptr noundef %18, ptr noundef @.str.64) #10
  ret void
}