; Function Attrs: cold nofree nounwind uwtable
define internal fastcc void @_usage(ptr noundef %0) unnamed_addr #9 {
  %2 = load ptr, ptr @stderr, align 8
  %3 = tail call i32 (ptr, ptr, ...) @fprintf(ptr noundef %2, ptr noundef nonnull @.str.57, ptr noundef %0) #19
  %4 = load ptr, ptr @stderr, align 8
  %5 = tail call i64 @fwrite(ptr nonnull @.str.58, i64 40, i64 1, ptr %4) #20
  %6 = load ptr, ptr @stderr, align 8
  %7 = tail call i64 @fwrite(ptr nonnull @.str.59, i64 39, i64 1, ptr %6) #20
  %8 = load ptr, ptr @stderr, align 8
  %9 = tail call i64 @fwrite(ptr nonnull @.str.60, i64 58, i64 1, ptr %8) #20
  %10 = load ptr, ptr @stderr, align 8
  %11 = tail call i64 @fwrite(ptr nonnull @.str.61, i64 72, i64 1, ptr %10) #20
  %12 = load ptr, ptr @stderr, align 8
  %13 = tail call i64 @fwrite(ptr nonnull @.str.62, i64 62, i64 1, ptr %12) #20
  %14 = load ptr, ptr @stderr, align 8
  %15 = tail call i64 @fwrite(ptr nonnull @.str.63, i64 164, i64 1, ptr %14) #20
  %16 = load ptr, ptr @stderr, align 8
  %17 = tail call i64 @fwrite(ptr nonnull @.str.64, i64 50, i64 1, ptr %16) #20
  ret void
}